target datalayout = "e-m:e-p270:32:32-p271:32:32-p272:64:64-i64:64-i128:128-f80:128-n8:16:32:64-S128"
target triple = "x86_64-pc-linux-gnu"

%"class.datalog::execution_context" = type <{ ptr, %class.vector, %class.u_map, ptr, i32, %"struct.datalog::execution_context::stats", [4 x i8] }>
%class.vector = type { ptr }
%class.u_map = type { %class.map }
%class.map = type { %class.table2map }
%class.table2map = type { %class.core_hashtable }
%class.core_hashtable = type <{ ptr, i32, i32, i32, [4 x i8] }>
%"struct.datalog::execution_context::stats" = type { i32, i32, i32, i32, i32, i32, i32, i32, i32, i32, i32, i32, i32, i32 }
%"class.datalog::context" = type <{ ptr, ptr, ptr, %class.params_ref, ptr, i8, i8, [6 x i8], %class.symbol, %"class.datalog::dl_decl_util", %class.th_rewriter, %class.var_subst, %"class.datalog::rule_manager", %"class.datalog::context::contains_pred", %"class.datalog::rule_properties", %"class.datalog::rule_transformer", %class.trail_stack, %class.ref_vector.46, %class.bind_variables, %class.obj_map.63, %class.obj_hashtable.68, %class.map.74, %class.obj_map.78, %"class.datalog::rule_set", %"class.datalog::rule_set", %class.expr_free_vars, i32, [4 x i8], %class.ref_vector, %class.svector.61, %class.vector.107, %class.ref_vector, %class.ref, %class.ref.108, ptr, %class.scoped_ptr.109, i8, i8, i8, i8, i32, %class.obj_ref, %class.obj_ref, i32, [4 x i8] }>
%class.params_ref = type { ptr }
%class.symbol = type { ptr }
%"class.datalog::dl_decl_util" = type <{ ptr, %class.scoped_ptr, %class.scoped_ptr.0, i32, [4 x i8] }>
%class.scoped_ptr = type { ptr }
%class.scoped_ptr.0 = type { ptr }
%class.th_rewriter = type { ptr, %class.params_ref }
%class.var_subst = type { %class.beta_reducer, i8, [7 x i8] }
%class.beta_reducer = type <{ %class.rewriter_tpl, [8 x i8] }>
%class.rewriter_tpl = type { %class.rewriter_core, ptr, i32, %class.ptr_vector.3, %class.var_shifter, %class.inv_var_shifter, %class.obj_ref, %class.obj_ref.14, %class.obj_ref.14, %class.svector.15 }
%class.rewriter_core = type { ptr, ptr, i8, i8, %class.ptr_vector, ptr, %class.svector, %class.ref_vector, %class.ptr_vector, ptr, %class.ref_vector.5, %class.obj_hashtable, ptr, i32, %class.svector.12 }
%class.svector = type { %class.vector.2 }
%class.vector.2 = type { ptr }
%class.ptr_vector = type { %class.vector.1 }
%class.vector.1 = type { ptr }
%class.ref_vector.5 = type { %class.ref_vector_core.6 }
%class.ref_vector_core.6 = type { %class.ref_manager_wrapper.7, %class.ptr_vector.8 }
%class.ref_manager_wrapper.7 = type { ptr }
%class.ptr_vector.8 = type { %class.vector.9 }
%class.vector.9 = type { ptr }
%class.obj_hashtable = type { %class.core_hashtable.base.11, [4 x i8] }
%class.core_hashtable.base.11 = type <{ ptr, i32, i32, i32 }>
%class.svector.12 = type { %class.vector.13 }
%class.vector.13 = type { ptr }
%class.ptr_vector.3 = type { %class.vector.4 }
%class.vector.4 = type { ptr }
%class.var_shifter = type <{ %class.var_shifter_core, i32, i32, i32, [4 x i8] }>
%class.var_shifter_core = type { %class.rewriter_core }
%class.inv_var_shifter = type <{ %class.var_shifter_core, i32, [4 x i8] }>
%class.obj_ref.14 = type { ptr, ptr }
%class.svector.15 = type { %class.vector.16 }
%class.vector.16 = type { ptr }
%"class.datalog::rule_manager" = type { ptr, ptr, %"class.datalog::rule_counter", %class.used_vars, %class.uint_set, %class.expr_free_vars, %class.ref_vector.5, %class.obj_ref.14, %class.ref_vector, %class.svector.28, %class.hnf, %class.qe_lite, %class.label_rewriter, %"struct.datalog::uninterpreted_function_finder_proc", %"struct.datalog::quantifier_finder_proc", [5 x i8], %class.expr_sparse_mark, %"struct.datalog::fd_finder_proc" }
%"class.datalog::rule_counter" = type { %class.var_counter }
%class.var_counter = type { %class.counter, %class.ast_fast_mark, %class.expr_free_vars, %class.ptr_vector.3, %class.svector.15 }
%class.counter = type { %class.u_map.17 }
%class.u_map.17 = type { %class.map.18 }
%class.map.18 = type { %class.table2map.19 }
%class.table2map.19 = type { %class.core_hashtable.20 }
%class.core_hashtable.20 = type <{ ptr, i32, i32, i32, [4 x i8] }>
%class.ast_fast_mark = type { %class.ptr_buffer }
%class.ptr_buffer = type { %class.buffer }
%class.buffer = type { ptr, i32, i32, [128 x i8] }
%class.used_vars = type { %class.ptr_vector.22, %class.hashtable, %class.svector.26, i32, i32 }
%class.ptr_vector.22 = type { %class.vector.23 }
%class.vector.23 = type { ptr }
%class.hashtable = type { %class.core_hashtable.base.25, [4 x i8] }
%class.core_hashtable.base.25 = type <{ ptr, i32, i32, i32 }>
%class.svector.26 = type { %class.vector.27 }
%class.vector.27 = type { ptr }
%class.uint_set = type { %class.svector.15 }
%class.svector.28 = type { %class.vector.29 }
%class.vector.29 = type { ptr }
%class.hnf = type { ptr }
%class.qe_lite = type { ptr }
%class.label_rewriter = type { i32, %class.rewriter_tpl.30 }
%class.rewriter_tpl.30 = type { %class.rewriter_core, ptr, i32, %class.ptr_vector.3, %class.var_shifter, %class.inv_var_shifter, %class.obj_ref, %class.obj_ref.14, %class.obj_ref.14, %class.svector.15 }
%"struct.datalog::uninterpreted_function_finder_proc" = type { ptr, %"class.datatype::util", %"class.datalog::dl_decl_util", i8, ptr }
%"class.datatype::util" = type { ptr, i32, ptr }
%"struct.datalog::quantifier_finder_proc" = type { i8, i8, i8 }
%class.expr_sparse_mark = type { %class.obj_hashtable }
%"struct.datalog::fd_finder_proc" = type <{ ptr, %class.bv_util, i8, [7 x i8] }>
%class.bv_util = type { %class.bv_recognizers, ptr, ptr }
%class.bv_recognizers = type { i32 }
%"class.datalog::context::contains_pred" = type { %class.i_expr_pred, ptr }
%class.i_expr_pred = type { ptr }
%"class.datalog::rule_properties" = type <{ ptr, ptr, ptr, ptr, %"class.datatype::util", %"class.datalog::dl_decl_util", %class.arith_util, %class.bv_util, %class.array_util, %"class.recfun::util", i8, [7 x i8], ptr, %class.obj_map, %class.obj_map.35, %class.ptr_vector.40, %class.ptr_vector.40, %class.ptr_vector.40, i8, i8, [6 x i8] }>
%class.arith_util = type { ptr, ptr }
%class.array_util = type { %class.array_recognizers, ptr }
%class.array_recognizers = type { i32 }
%"class.recfun::util" = type { ptr, i32, ptr }
%class.obj_map = type { %class.core_hashtable.31 }
%class.core_hashtable.31 = type <{ ptr, i32, i32, i32, [4 x i8] }>
%class.obj_map.35 = type { %class.core_hashtable.36 }
%class.core_hashtable.36 = type <{ ptr, i32, i32, i32, [4 x i8] }>
%class.ptr_vector.40 = type { %class.vector.41 }
%class.vector.41 = type { ptr }
%"class.datalog::rule_transformer" = type { ptr, ptr, i8, %class.svector.42 }
%class.svector.42 = type { %class.vector.43 }
%class.vector.43 = type { ptr }
%class.trail_stack = type { %class.ptr_vector.44, %class.svector.15, %class.region }
%class.ptr_vector.44 = type { %class.vector.45 }
%class.vector.45 = type { ptr }
%class.region = type { ptr, ptr, ptr, ptr, ptr }
%class.ref_vector.46 = type { %class.ref_vector_core.47 }
%class.ref_vector_core.47 = type { %class.ref_manager_wrapper.48, %class.ptr_vector.49 }
%class.ref_manager_wrapper.48 = type { ptr }
%class.ptr_vector.49 = type { %class.vector.50 }
%class.vector.50 = type { ptr }
%class.bind_variables = type { ptr, %class.ref_vector.5, %class.obj_map.51, %class.obj_map.56, %class.ref_vector, %class.ptr_vector.22, %class.svector.61, %class.ptr_vector.3, %class.ptr_vector.3 }
%class.obj_map.51 = type { %class.core_hashtable.52 }
%class.core_hashtable.52 = type <{ ptr, i32, i32, i32, [4 x i8] }>
%class.obj_map.56 = type { %class.core_hashtable.57 }
%class.core_hashtable.57 = type <{ ptr, i32, i32, i32, [4 x i8] }>
%class.obj_map.63 = type { %class.core_hashtable.64 }
%class.core_hashtable.64 = type <{ ptr, i32, i32, i32, [4 x i8] }>
%class.obj_hashtable.68 = type { %class.core_hashtable.base.72, [4 x i8] }
%class.core_hashtable.base.72 = type <{ ptr, i32, i32, i32 }>
%class.map.74 = type { %class.table2map.75 }
%class.table2map.75 = type { %class.core_hashtable.76 }
%class.core_hashtable.76 = type <{ ptr, i32, i32, i32, [4 x i8] }>
%class.obj_map.78 = type { %class.core_hashtable.79 }
%class.core_hashtable.79 = type <{ ptr, i32, i32, i32, [4 x i8] }>
%"class.datalog::rule_set" = type { ptr, ptr, %class.ref_vector.83, %class.obj_map.86, %"class.datalog::rule_dependencies", %class.scoped_ptr.96, %class.obj_hashtable.68, %class.obj_map.97, %class.obj_map.97, %class.ref_vector.102, %class.ptr_vector.40 }
%class.ref_vector.83 = type { %class.ref_vector_core.84 }
%class.ref_vector_core.84 = type { %class.ref_manager_wrapper.85, %class.ptr_vector.40 }
%class.ref_manager_wrapper.85 = type { ptr }
%class.obj_map.86 = type { %class.core_hashtable.87 }
%class.core_hashtable.87 = type <{ ptr, i32, i32, i32, [4 x i8] }>
%"class.datalog::rule_dependencies" = type { %class.obj_map.91, ptr, %class.ptr_vector.3, %class.expr_sparse_mark, %class.obj_hashtable.68 }
%class.obj_map.91 = type { %class.core_hashtable.92 }
%class.core_hashtable.92 = type <{ ptr, i32, i32, i32, [4 x i8] }>
%class.scoped_ptr.96 = type { ptr }
%class.obj_map.97 = type { %class.core_hashtable.98 }
%class.core_hashtable.98 = type <{ ptr, i32, i32, i32, [4 x i8] }>
%class.ref_vector.102 = type { %class.ref_vector_core.103 }
%class.ref_vector_core.103 = type { %class.ref_manager_wrapper.104, %class.ptr_vector.105 }
%class.ref_manager_wrapper.104 = type { ptr }
%class.ptr_vector.105 = type { %class.vector.106 }
%class.vector.106 = type { ptr }
%class.expr_free_vars = type { %class.expr_sparse_mark, %class.ptr_vector.22, %class.ptr_vector.3 }
%class.svector.61 = type { %class.vector.62 }
%class.vector.62 = type { ptr }
%class.vector.107 = type { ptr }
%class.ref_vector = type { %class.ref_vector_core }
%class.ref_vector_core = type { %class.ref_manager_wrapper, %class.ptr_vector.3 }
%class.ref_manager_wrapper = type { ptr }
%class.ref = type { ptr }
%class.ref.108 = type { ptr }
%class.scoped_ptr.109 = type { ptr }
%class.obj_ref = type { ptr, ptr }
%"class.std::__cxx11::basic_string" = type { %"struct.std::__cxx11::basic_string<char>::_Alloc_hider", i64, %union.anon }
%"struct.std::__cxx11::basic_string<char>::_Alloc_hider" = type { ptr }
%union.anon = type { i64, [8 x i8] }
%"struct.datalog::costs" = type { i32, i32 }
%"class.datalog::instruction_block" = type { %class.ptr_vector.141, ptr }
%class.ptr_vector.141 = type { %class.vector.142 }
%class.vector.142 = type { ptr }
%"class.datalog::rel_context" = type { %"class.datalog::rel_context_base", ptr, ptr, %"class.datalog::relation_manager", %class.obj_ref, ptr, %class.vector.140, %"class.datalog::execution_context", %"class.datalog::instruction_block", double }
%"class.datalog::rel_context_base" = type { %"class.datalog::engine_base" }
%"class.datalog::engine_base" = type { ptr, ptr, %"class.std::__cxx11::basic_string" }
%"class.datalog::relation_manager" = type { ptr, ptr, %class.ptr_vector.110, %class.ptr_vector.112, %class.map.114, %class.map.119, %class.u_map.125, ptr, ptr, %class.obj_map.130, %class.obj_hashtable.68, i32, i32, %class.obj_map.135 }
%class.ptr_vector.110 = type { %class.vector.111 }
%class.vector.111 = type { ptr }
%class.ptr_vector.112 = type { %class.vector.113 }
%class.vector.113 = type { ptr }
%class.map.114 = type { %class.table2map.115 }
%class.table2map.115 = type { %class.core_hashtable.116 }
%class.core_hashtable.116 = type <{ ptr, i32, i32, i32, [4 x i8] }>
%class.map.119 = type { %class.table2map.120 }
%class.table2map.120 = type { %class.core_hashtable.121 }
%class.core_hashtable.121 = type <{ ptr, i32, i32, i32, [4 x i8] }>
%class.u_map.125 = type { %class.map.126 }
%class.map.126 = type { %class.table2map.127 }
%class.table2map.127 = type { %class.core_hashtable.128 }
%class.core_hashtable.128 = type <{ ptr, i32, i32, i32, [4 x i8] }>
%class.obj_map.130 = type { %class.core_hashtable.131 }
%class.core_hashtable.131 = type <{ ptr, i32, i32, i32, [4 x i8] }>
%class.obj_map.135 = type { %class.core_hashtable.136 }
%class.core_hashtable.136 = type <{ ptr, i32, i32, i32, [4 x i8] }>
%class.vector.140 = type { ptr }
%"class.datalog::accounted_object" = type <{ ptr, ptr, %"struct.datalog::costs", %"struct.datalog::costs", i8, [7 x i8] }>

@_ZTIN7datalog16rel_context_baseE = linkonce_odr hidden constant { ptr, ptr, ptr } { ptr getelementptr inbounds (ptr, ptr @_ZTVN10__cxxabiv120__si_class_type_infoE, i64 2), ptr @_ZTSN7datalog16rel_context_baseE, ptr @_ZTIN7datalog11engine_baseE }, comdat, align 8
@_ZTIN7datalog11rel_contextE = external constant ptr

; Function Attrs: mustprogress nounwind uwtable
define linkonce_odr hidden noundef i32 @_ZNK6vectorIPN7datalog11instructionELb0EjE4sizeEv(ptr noundef nonnull align 8 dereferenceable(8) %0) #5 comdat align 2 {
  %2 = alloca i32, align 4
  %3 = alloca ptr, align 8
  store ptr %0, ptr %3, align 8, !tbaa !422
  %4 = load ptr, ptr %3, align 8
  %5 = getelementptr inbounds nuw %class.vector.142, ptr %4, i32 0, i32 0
  %6 = load ptr, ptr %5, align 8, !tbaa !424
  %7 = icmp eq ptr %6, null
  br i1 %7, label %8, label %9

8:                                                ; preds = %1
  store i32 0, ptr %2, align 4
  br label %14

9:                                                ; preds = %1
  %10 = getelementptr inbounds nuw %class.vector.142, ptr %4, i32 0, i32 0
  %11 = load ptr, ptr %10, align 8, !tbaa !424
  %12 = getelementptr inbounds i32, ptr %11, i64 -1
  %13 = load i32, ptr %12, align 4, !tbaa !38
  store i32 %13, ptr %2, align 4
  br label %14

14:                                               ; preds = %9, %8
  %15 = load i32, ptr %2, align 4
  ret i32 %15
}

; Function Attrs: mustprogress uwtable
define linkonce_odr hidden noundef ptr @_ZN7datalog7context15get_rel_contextEv(ptr noundef nonnull align 8 dereferenceable(3028) %0) #4 comdat align 2 {
  %2 = alloca ptr, align 8
  store ptr %0, ptr %2, align 8, !tbaa !8
  %3 = load ptr, ptr %2, align 8
  call void @_ZN7datalog7context13ensure_engineEP4expr(ptr noundef nonnull align 8 dereferenceable(3028) %3, ptr noundef null)
  %4 = getelementptr inbounds nuw %"class.datalog::context", ptr %3, i32 0, i32 34
  %5 = load ptr, ptr %4, align 8, !tbaa !40
  ret ptr %5
}

; Function Attrs: mustprogress nounwind uwtable
define linkonce_odr hidden noundef zeroext i1 @_ZNK7datalog16accounted_object14being_recordedEv(ptr noundef nonnull align 8 dereferenceable(33) %0) #5 comdat align 2 {
  %2 = alloca ptr, align 8
  store ptr %0, ptr %2, align 8, !tbaa !462
  %3 = load ptr, ptr %2, align 8
  %4 = getelementptr inbounds nuw %"class.datalog::accounted_object", ptr %3, i32 0, i32 4
  %5 = load i8, ptr %4, align 8, !tbaa !464, !range !262, !noundef !263
  %6 = trunc i8 %5 to i1
  ret i1 %6
}

; Function Attrs: mustprogress nounwind uwtable
define linkonce_odr hidden noundef nonnull align 8 dereferenceable(3028) ptr @_ZNK7datalog11rel_context11get_contextEv(ptr noundef nonnull align 8 dereferenceable(432) %0) #5 comdat align 2 {
  %2 = alloca ptr, align 8
  store ptr %0, ptr %2, align 8, !tbaa !296
  %3 = load ptr, ptr %2, align 8
  %4 = getelementptr inbounds nuw %"class.datalog::rel_context", ptr %3, i32 0, i32 1
  %5 = load ptr, ptr %4, align 8, !tbaa !425
  ret ptr %5
}

; Function Attrs: mustprogress nounwind uwtable
define linkonce_odr hidden noundef ptr @_ZNK6vectorIPN7datalog11instructionELb0EjE3endEv(ptr noundef nonnull align 8 dereferenceable(8) %0) #5 comdat align 2 {
  %2 = alloca ptr, align 8
  store ptr %0, ptr %2, align 8, !tbaa !422
  %3 = load ptr, ptr %2, align 8
  %4 = getelementptr inbounds nuw %class.vector.142, ptr %3, i32 0, i32 0
  %5 = load ptr, ptr %4, align 8, !tbaa !424
  %6 = call noundef i32 @_ZNK6vectorIPN7datalog11instructionELb0EjE4sizeEv(ptr noundef nonnull align 8 dereferenceable(8) %3)
  %7 = zext i32 %6 to i64
  %8 = getelementptr inbounds nuw ptr, ptr %5, i64 %7
  ret ptr %8
}

; Function Attrs: mustprogress nounwind uwtable
define linkonce_odr hidden noundef ptr @_ZNK6vectorIPN7datalog11instructionELb0EjE5beginEv(ptr noundef nonnull align 8 dereferenceable(8) %0) #5 comdat align 2 {
  %2 = alloca ptr, align 8
  store ptr %0, ptr %2, align 8, !tbaa !422
  %3 = load ptr, ptr %2, align 8
  %4 = getelementptr inbounds nuw %class.vector.142, ptr %3, i32 0, i32 0
  %5 = load ptr, ptr %4, align 8, !tbaa !424
  ret ptr %5
}

; Function Attrs: mustprogress uwtable
define hidden noundef nonnull align 8 dereferenceable(432) ptr @_ZNK7datalog17execution_context15get_rel_contextEv(ptr noundef nonnull align 8 dereferenceable(108) %0) #4 align 2 {
  %2 = alloca ptr, align 8
  store ptr %0, ptr %2, align 8, !tbaa !3
  %3 = load ptr, ptr %2, align 8
  %4 = getelementptr inbounds nuw %"class.datalog::execution_context", ptr %3, i32 0, i32 0
  %5 = load ptr, ptr %4, align 8, !tbaa !39
  %6 = call noundef ptr @_ZN7datalog7context15get_rel_contextEv(ptr noundef nonnull align 8 dereferenceable(3028) %5)
  %7 = call ptr @__dynamic_cast(ptr %6, ptr @_ZTIN7datalog16rel_context_baseE, ptr @_ZTIN7datalog11rel_contextE, i64 0) #3
  %8 = icmp eq ptr %7, null
  br i1 %8, label %9, label %10

9:                                                ; preds = %1
  call void @__cxa_bad_cast() #23
  unreachable

10:                                               ; preds = %1
  ret ptr %7
}

; Function Attrs: mustprogress uwtable
define hidden void @_ZNK7datalog17instruction_block16display_indentedERKNS_17execution_contextERSoRKNSt7__cxx1112basic_stringIcSt11char_traitsIcESaIcEEE(ptr noundef nonnull align 8 dereferenceable(16) %0, ptr noundef nonnull align 8 dereferenceable(108) %1, ptr noundef nonnull align 8 dereferenceable(8) %2, ptr noundef nonnull align 8 dereferenceable(32) %3) #4 align 2 {
  %5 = alloca ptr, align 8
  %6 = alloca ptr, align 8
  %7 = alloca ptr, align 8
  %8 = alloca ptr, align 8
  %9 = alloca ptr, align 8
  %10 = alloca ptr, align 8
  %11 = alloca ptr, align 8
  %12 = alloca ptr, align 8
  %13 = alloca ptr, align 8
  store ptr %0, ptr %5, align 8, !tbaa !327
  store ptr %1, ptr %6, align 8, !tbaa !3
  store ptr %2, ptr %7, align 8, !tbaa !235
  store ptr %3, ptr %8, align 8, !tbaa !255
  %14 = load ptr, ptr %5, align 8
  call void @llvm.lifetime.start.p0(i64 8, ptr %9) #3
  %15 = load ptr, ptr %6, align 8, !tbaa !3
  %16 = call noundef nonnull align 8 dereferenceable(432) ptr @_ZNK7datalog17execution_context15get_rel_contextEv(ptr noundef nonnull align 8 dereferenceable(108) %15)
  store ptr %16, ptr %9, align 8, !tbaa !296
  call void @llvm.lifetime.start.p0(i64 8, ptr %10) #3
  %17 = getelementptr inbounds nuw %"class.datalog::instruction_block", ptr %14, i32 0, i32 0
  store ptr %17, ptr %10, align 8, !tbaa !413
  call void @llvm.lifetime.start.p0(i64 8, ptr %11) #3
  %18 = load ptr, ptr %10, align 8, !tbaa !413
  %19 = call noundef ptr @_ZNK6vectorIPN7datalog11instructionELb0EjE5beginEv(ptr noundef nonnull align 8 dereferenceable(8) %18)
  store ptr %19, ptr %11, align 8, !tbaa !415
  call void @llvm.lifetime.start.p0(i64 8, ptr %12) #3
  %20 = load ptr, ptr %10, align 8, !tbaa !413
  %21 = call noundef ptr @_ZNK6vectorIPN7datalog11instructionELb0EjE3endEv(ptr noundef nonnull align 8 dereferenceable(8) %20)
  store ptr %21, ptr %12, align 8, !tbaa !415
  br label %22

22:                                               ; preds = %45, %4
  %23 = load ptr, ptr %11, align 8, !tbaa !415
  %24 = load ptr, ptr %12, align 8, !tbaa !415
  %25 = icmp ne ptr %23, %24
  br i1 %25, label %27, label %26

26:                                               ; preds = %22
  call void @llvm.lifetime.end.p0(i64 8, ptr %12) #3
  call void @llvm.lifetime.end.p0(i64 8, ptr %11) #3
  call void @llvm.lifetime.end.p0(i64 8, ptr %10) #3
  br label %48

27:                                               ; preds = %22
  call void @llvm.lifetime.start.p0(i64 8, ptr %13) #3
  %28 = load ptr, ptr %11, align 8, !tbaa !415
  %29 = load ptr, ptr %28, align 8, !tbaa !291
  store ptr %29, ptr %13, align 8, !tbaa !291
  %30 = load ptr, ptr %13, align 8, !tbaa !291
  %31 = getelementptr inbounds i8, ptr %30, i64 8
  %32 = load ptr, ptr %9, align 8, !tbaa !296
  %33 = call noundef nonnull align 8 dereferenceable(3028) ptr @_ZNK7datalog11rel_context11get_contextEv(ptr noundef nonnull align 8 dereferenceable(432) %32)
  %34 = call noundef zeroext i1 @_ZNK7datalog16accounted_object24passes_output_thresholdsERNS_7contextE(ptr noundef nonnull align 8 dereferenceable(33) %31, ptr noundef nonnull align 8 dereferenceable(3028) %33)
  br i1 %34, label %39, label %35

35:                                               ; preds = %27
  %36 = load ptr, ptr %13, align 8, !tbaa !291
  %37 = getelementptr inbounds i8, ptr %36, i64 8
  %38 = call noundef zeroext i1 @_ZNK7datalog16accounted_object14being_recordedEv(ptr noundef nonnull align 8 dereferenceable(33) %37)
  br i1 %38, label %39, label %44

39:                                               ; preds = %35, %27
  %40 = load ptr, ptr %13, align 8, !tbaa !291
  %41 = load ptr, ptr %6, align 8, !tbaa !3
  %42 = load ptr, ptr %7, align 8, !tbaa !235
  %43 = load ptr, ptr %8, align 8, !tbaa !255
  call void @_ZNK7datalog11instruction16display_indentedERKNS_17execution_contextERSoRKNSt7__cxx1112basic_stringIcSt11char_traitsIcESaIcEEE(ptr noundef nonnull align 8 dereferenceable(72) %40, ptr noundef nonnull align 8 dereferenceable(108) %41, ptr noundef nonnull align 8 dereferenceable(8) %42, ptr noundef nonnull align 8 dereferenceable(32) %43)
  br label %44

44:                                               ; preds = %39, %35
  call void @llvm.lifetime.end.p0(i64 8, ptr %13) #3
  br label %45

45:                                               ; preds = %44
  %46 = load ptr, ptr %11, align 8, !tbaa !415
  %47 = getelementptr inbounds nuw ptr, ptr %46, i32 1
  store ptr %47, ptr %11, align 8, !tbaa !415
  br label %22

48:                                               ; preds = %26
  call void @llvm.lifetime.end.p0(i64 8, ptr %9) #3
  ret void
}