; Function Attrs: mustprogress uwtable
define hidden void @_ZNK7datalog17instruction_block16display_indentedERKNS_17execution_contextERSoRKNSt7__cxx1112basic_stringIcSt11char_traitsIcESaIcEEE(ptr noundef nonnull readonly align 8 captures(none) dereferenceable(16) %0, ptr noundef nonnull align 8 dereferenceable(108) %1, ptr noundef nonnull align 8 dereferenceable(8) %2, ptr noundef nonnull align 8 dereferenceable(32) %3) local_unnamed_addr #3 align 2 {
  %5 = load ptr, ptr %1, align 8, !tbaa !48
  tail call void @_ZN7datalog7context13ensure_engineEP4expr(ptr noundef nonnull align 8 dereferenceable(3028) %5, ptr noundef null)
  %6 = getelementptr inbounds nuw i8, ptr %5, i64 2968
  %7 = load ptr, ptr %6, align 8, !tbaa !49
  %8 = tail call ptr @__dynamic_cast(ptr %7, ptr nonnull @_ZTIN7datalog16rel_context_baseE, ptr nonnull @_ZTIN7datalog11rel_contextE, i64 0) #25
  %9 = icmp eq ptr %8, null
  br i1 %9, label %10, label %_ZNK7datalog17execution_context15get_rel_contextEv.exit

10:                                               ; preds = %4
  tail call void @__cxa_bad_cast() #28
  unreachable

_ZNK7datalog17execution_context15get_rel_contextEv.exit: ; preds = %4
  %11 = load ptr, ptr %0, align 8, !tbaa !381
  %12 = icmp eq ptr %11, null
  br i1 %12, label %._crit_edge, label %_ZNK6vectorIPN7datalog11instructionELb0EjE3endEv.exit

_ZNK6vectorIPN7datalog11instructionELb0EjE3endEv.exit: ; preds = %_ZNK7datalog17execution_context15get_rel_contextEv.exit
  %13 = getelementptr inbounds i8, ptr %11, i64 -4
  %14 = load i32, ptr %13, align 4, !tbaa !33
  %15 = zext i32 %14 to i64
  %16 = getelementptr inbounds nuw ptr, ptr %11, i64 %15
  %.not15 = icmp eq i32 %14, 0
  br i1 %.not15, label %._crit_edge, label %.lr.ph

.lr.ph:                                           ; preds = %_ZNK6vectorIPN7datalog11instructionELb0EjE3endEv.exit
  %17 = getelementptr inbounds nuw i8, ptr %8, i64 48
  br label %18

._crit_edge:                                      ; preds = %28, %_ZNK7datalog17execution_context15get_rel_contextEv.exit, %_ZNK6vectorIPN7datalog11instructionELb0EjE3endEv.exit
  ret void

18:                                               ; preds = %.lr.ph, %28
  %.016 = phi ptr [ %11, %.lr.ph ], [ %29, %28 ]
  %19 = load ptr, ptr %.016, align 8, !tbaa !384
  %20 = getelementptr inbounds nuw i8, ptr %19, i64 8
  %21 = load ptr, ptr %17, align 8, !tbaa !390
  %22 = tail call noundef zeroext i1 @_ZNK7datalog16accounted_object24passes_output_thresholdsERNS_7contextE(ptr noundef nonnull align 8 dereferenceable(33) %20, ptr noundef nonnull align 8 dereferenceable(3028) %21)
  br i1 %22, label %27, label %23

23:                                               ; preds = %18
  %24 = getelementptr inbounds nuw i8, ptr %19, i64 40
  %25 = load i8, ptr %24, align 8, !tbaa !294, !range !258, !noundef !259
  %26 = trunc nuw i8 %25 to i1
  br i1 %26, label %27, label %28

27:                                               ; preds = %23, %18
  tail call void @_ZNK7datalog11instruction16display_indentedERKNS_17execution_contextERSoRKNSt7__cxx1112basic_stringIcSt11char_traitsIcESaIcEEE(ptr noundef nonnull align 8 dereferenceable(72) %19, ptr noundef nonnull align 8 dereferenceable(108) %1, ptr noundef nonnull align 8 dereferenceable(8) %2, ptr noundef nonnull align 8 dereferenceable(32) %3)
  br label %28

28:                                               ; preds = %27, %23
  %29 = getelementptr inbounds nuw i8, ptr %.016, i64 8
  %.not = icmp eq ptr %29, %16
  br i1 %.not, label %._crit_edge, label %18
}